; ModuleID = '58/1065.c'
source_filename = "58/1065.c"
target datalayout = "e-m:e-p270:32:32-p271:32:32-p272:64:64-i64:64-f80:128-n8:16:32:64-S128"
target triple = "x86_64-pc-linux-gnu"

@.str = private unnamed_addr constant [4 x i8] c"%d\0A\00", align 1

; Function Attrs: noinline nounwind uwtable
define dso_local i32 @main() #0 {
  %1 = alloca i32, align 4
  %2 = alloca i32, align 4
  %3 = alloca i32, align 4
  %4 = alloca [81 x i8], align 16
  %5 = alloca i32, align 4
  %6 = alloca i8*, align 8
  %7 = alloca i8*, align 8
  store i32 0, i32* %1, align 4
  %8 = getelementptr inbounds [81 x i8], [81 x i8]* %4, i64 0, i64 0
  %9 = call i32 (i8*, ...) bitcast (i32 (...)* @gets to i32 (i8*, ...)*)(i8* %8)
  %10 = getelementptr inbounds [81 x i8], [81 x i8]* %4, i64 0, i64 0
  %11 = call i32 @atoi(i8* %10) #3
  store i32 %11, i32* %3, align 4
  store i32 1, i32* %2, align 4
  br label %12

12:                                               ; preds = %104, %0
  %13 = load i32, i32* %2, align 4
  %14 = load i32, i32* %3, align 4
  %15 = icmp sle i32 %13, %14
  br i1 %15, label %16, label %107

16:                                               ; preds = %12
  store i32 0, i32* %5, align 4
  %17 = getelementptr inbounds [81 x i8], [81 x i8]* %4, i64 0, i64 0
  %18 = call i32 (i8*, ...) bitcast (i32 (...)* @gets to i32 (i8*, ...)*)(i8* %17)
  %19 = getelementptr inbounds [81 x i8], [81 x i8]* %4, i64 0, i64 0
  store i8* %19, i8** %6, align 8
  %20 = load i8*, i8** %6, align 8
  store i8* %20, i8** %7, align 8
  %21 = load i8*, i8** %7, align 8
  store i8* %21, i8** %6, align 8
  br label %22

22:                                               ; preds = %98, %16
  %23 = load i8*, i8** %6, align 8
  %24 = load i8, i8* %23, align 1
  %25 = sext i8 %24 to i32
  %26 = icmp ne i32 %25, 0
  br i1 %26, label %27, label %101

27:                                               ; preds = %22
  %28 = load i8*, i8** %6, align 8
  %29 = load i8*, i8** %7, align 8
  %30 = icmp eq i8* %28, %29
  br i1 %30, label %31, label %59

31:                                               ; preds = %27
  %32 = load i8*, i8** %6, align 8
  %33 = load i8, i8* %32, align 1
  %34 = sext i8 %33 to i32
  %35 = icmp eq i32 %34, 95
  br i1 %35, label %56, label %36

36:                                               ; preds = %31
  %37 = load i8*, i8** %6, align 8
  %38 = load i8, i8* %37, align 1
  %39 = sext i8 %38 to i32
  %40 = icmp sge i32 %39, 97
  br i1 %40, label %41, label %46

41:                                               ; preds = %36
  %42 = load i8*, i8** %6, align 8
  %43 = load i8, i8* %42, align 1
  %44 = sext i8 %43 to i32
  %45 = icmp sle i32 %44, 122
  br i1 %45, label %56, label %46

46:                                               ; preds = %41, %36
  %47 = load i8*, i8** %6, align 8
  %48 = load i8, i8* %47, align 1
  %49 = sext i8 %48 to i32
  %50 = icmp sge i32 %49, 65
  br i1 %50, label %51, label %57

51:                                               ; preds = %46
  %52 = load i8*, i8** %6, align 8
  %53 = load i8, i8* %52, align 1
  %54 = sext i8 %53 to i32
  %55 = icmp sle i32 %54, 90
  br i1 %55, label %56, label %57

56:                                               ; preds = %51, %41, %31
  store i32 1, i32* %5, align 4
  br label %58

57:                                               ; preds = %51, %46
  store i32 0, i32* %5, align 4
  br label %101

58:                                               ; preds = %56
  br label %97

59:                                               ; preds = %27
  %60 = load i8*, i8** %6, align 8
  %61 = load i8, i8* %60, align 1
  %62 = sext i8 %61 to i32
  %63 = icmp eq i32 %62, 95
  br i1 %63, label %94, label %64

64:                                               ; preds = %59
  %65 = load i8*, i8** %6, align 8
  %66 = load i8, i8* %65, align 1
  %67 = sext i8 %66 to i32
  %68 = icmp sge i32 %67, 97
  br i1 %68, label %69, label %74

69:                                               ; preds = %64
  %70 = load i8*, i8** %6, align 8
  %71 = load i8, i8* %70, align 1
  %72 = sext i8 %71 to i32
  %73 = icmp sle i32 %72, 122
  br i1 %73, label %94, label %74

74:                                               ; preds = %69, %64
  %75 = load i8*, i8** %6, align 8
  %76 = load i8, i8* %75, align 1
  %77 = sext i8 %76 to i32
  %78 = icmp sge i32 %77, 65
  br i1 %78, label %79, label %84

79:                                               ; preds = %74
  %80 = load i8*, i8** %6, align 8
  %81 = load i8, i8* %80, align 1
  %82 = sext i8 %81 to i32
  %83 = icmp sle i32 %82, 90
  br i1 %83, label %94, label %84

84:                                               ; preds = %79, %74
  %85 = load i8*, i8** %6, align 8
  %86 = load i8, i8* %85, align 1
  %87 = sext i8 %86 to i32
  %88 = icmp sge i32 %87, 48
  br i1 %88, label %89, label %95

89:                                               ; preds = %84
  %90 = load i8*, i8** %6, align 8
  %91 = load i8, i8* %90, align 1
  %92 = sext i8 %91 to i32
  %93 = icmp sle i32 %92, 57
  br i1 %93, label %94, label %95

94:                                               ; preds = %89, %79, %69, %59
  store i32 1, i32* %5, align 4
  br label %96

95:                                               ; preds = %89, %84
  store i32 0, i32* %5, align 4
  br label %101

96:                                               ; preds = %94
  br label %97

97:                                               ; preds = %96, %58
  br label %98

98:                                               ; preds = %97
  %99 = load i8*, i8** %6, align 8
  %100 = getelementptr inbounds i8, i8* %99, i32 1
  store i8* %100, i8** %6, align 8
  br label %22

101:                                              ; preds = %95, %57, %22
  %102 = load i32, i32* %5, align 4
  %103 = call i32 (i8*, ...) @printf(i8* getelementptr inbounds ([4 x i8], [4 x i8]* @.str, i64 0, i64 0), i32 %102)
  br label %104

104:                                              ; preds = %101
  %105 = load i32, i32* %2, align 4
  %106 = add nsw i32 %105, 1
  store i32 %106, i32* %2, align 4
  br label %12

107:                                              ; preds = %12
  ret i32 0
}

declare dso_local i32 @gets(...) #1

; Function Attrs: nounwind readonly
declare dso_local i32 @atoi(i8*) #2

declare dso_local i32 @printf(i8*, ...) #1


!llvm.module.flags = !{!0}
!llvm.ident = !{!1}

!0 = !{i32 1, !"wchar_size", i32 4}
!1 = !{!"clang version 10.0.0-4ubuntu1 "}
