; ModuleID = 'source-C-CXX/57/1065.c'
source_filename = "source-C-CXX/57/1065.c"
target datalayout = "e-m:e-p270:32:32-p271:32:32-p272:64:64-i64:64-f80:128-n8:16:32:64-S128"
target triple = "x86_64-pc-linux-gnu"

@.str = private unnamed_addr constant [4 x i8] c"%d\0A\00", align 1

; Function Attrs: nounwind sspstrong uwtable
define dso_local i32 @main() local_unnamed_addr #0 {
  %1 = alloca [81 x i8], align 16
  %2 = getelementptr inbounds [81 x i8], [81 x i8]* %1, i64 0, i64 0
  call void @llvm.lifetime.start.p0i8(i64 81, i8* nonnull %2) #5
  %3 = call i32 (i8*, ...) bitcast (i32 (...)* @gets to i32 (i8*, ...)*)(i8* nonnull %2) #5
  %4 = call i64 @strtol(i8* nocapture nonnull %2, i8** null, i32 10) #5
  %5 = trunc i64 %4 to i32
  %6 = icmp slt i32 %5, 1
  br i1 %6, label %36, label %7

7:                                                ; preds = %0, %31
  %8 = phi i32 [ %34, %31 ], [ 1, %0 ]
  %9 = call i32 (i8*, ...) bitcast (i32 (...)* @gets to i32 (i8*, ...)*)(i8* nonnull %2) #5
  %10 = load i8, i8* %2, align 16, !tbaa !5
  %11 = icmp eq i8 %10, 0
  br i1 %11, label %31, label %12

12:                                               ; preds = %7, %26
  %13 = phi i8 [ %29, %26 ], [ %10, %7 ]
  %14 = phi i64 [ %27, %26 ], [ 0, %7 ]
  %15 = icmp eq i64 %14, 0
  %16 = icmp eq i8 %13, 95
  %17 = and i8 %13, -33
  %18 = add i8 %17, -65
  %19 = icmp ult i8 %18, 26
  %20 = or i1 %19, %16
  br i1 %15, label %21, label %22

21:                                               ; preds = %12
  br i1 %20, label %26, label %31

22:                                               ; preds = %12
  %23 = add i8 %13, -48
  %24 = icmp ult i8 %23, 10
  %25 = or i1 %20, %24
  br i1 %25, label %26, label %31

26:                                               ; preds = %22, %21
  %27 = add nuw nsw i64 %14, 1
  %28 = getelementptr inbounds [81 x i8], [81 x i8]* %1, i64 0, i64 %27
  %29 = load i8, i8* %28, align 1, !tbaa !5
  %30 = icmp eq i8 %29, 0
  br i1 %30, label %31, label %12, !llvm.loop !8

31:                                               ; preds = %26, %21, %22, %7
  %32 = phi i32 [ 0, %7 ], [ 0, %22 ], [ 0, %21 ], [ 1, %26 ]
  %33 = call i32 (i8*, ...) @printf(i8* nonnull dereferenceable(1) getelementptr inbounds ([4 x i8], [4 x i8]* @.str, i64 0, i64 0), i32 %32)
  %34 = add nuw i32 %8, 1
  %35 = icmp eq i32 %8, %5
  br i1 %35, label %36, label %7, !llvm.loop !10

36:                                               ; preds = %31, %0
  call void @llvm.lifetime.end.p0i8(i64 81, i8* nonnull %2) #5
  ret i32 0
}

; Function Attrs: argmemonly mustprogress nofree nosync nounwind willreturn
declare void @llvm.lifetime.start.p0i8(i64 immarg, i8* nocapture) #1

declare i32 @gets(...) local_unnamed_addr #2

; Function Attrs: nofree nounwind
declare noundef i32 @printf(i8* nocapture noundef readonly, ...) local_unnamed_addr #3

; Function Attrs: argmemonly mustprogress nofree nosync nounwind willreturn
declare void @llvm.lifetime.end.p0i8(i64 immarg, i8* nocapture) #1

; Function Attrs: mustprogress nofree nounwind willreturn
declare i64 @strtol(i8* readonly, i8** nocapture, i32) local_unnamed_addr #4


!llvm.module.flags = !{!0, !1, !2, !3}
!llvm.ident = !{!4}

!0 = !{i32 1, !"wchar_size", i32 4}
!1 = !{i32 7, !"PIC Level", i32 2}
!2 = !{i32 7, !"PIE Level", i32 2}
!3 = !{i32 7, !"uwtable", i32 1}
!4 = !{!"clang version 13.0.0"}
!5 = !{!6, !6, i64 0}
!6 = !{!"omnipotent char", !7, i64 0}
!7 = !{!"Simple C/C++ TBAA"}
!8 = distinct !{!8, !9}
!9 = !{!"llvm.loop.mustprogress"}
!10 = distinct !{!10, !9}
